target datalayout = "e-m:e-p270:32:32-p271:32:32-p272:64:64-i64:64-i128:128-f80:128-n8:16:32:64-S128"
target triple = "x86_64-pc-linux-gnu"

%struct.dt_pthread_mutex_t = type { %union.pthread_mutex_t }
%union.pthread_mutex_t = type { %struct.__pthread_mutex_s }
%struct.__pthread_mutex_s = type { i32, i32, i32, i32, i32, i16, i16, %struct.__pthread_internal_list }
%struct.__pthread_internal_list = type { ptr, ptr }
%struct.dt_iop_lut3d_params_t = type { [512 x i8], i32, i32, i32, [12288 x i8], [128 x i8] }
%struct.dt_dev_pixelpipe_iop_t = type { ptr, ptr, ptr, ptr, i32, i32, %struct.dt_dev_histogram_collection_params_t, ptr, %struct.dt_dev_histogram_stats_t, [4 x i32], float, i32, i32, i64, i32, i32, %struct.dt_iop_roi_t, %struct.dt_iop_roi_t, %struct.dt_iop_roi_t, %struct.dt_iop_roi_t, i32, i32, %struct.dt_iop_buffer_dsc_t, %struct.dt_iop_buffer_dsc_t, ptr, [8 x i8] }
%struct.dt_dev_histogram_collection_params_t = type { ptr, i32 }
%struct.dt_dev_histogram_stats_t = type { i32, i64, i32, i32 }
%struct.dt_iop_roi_t = type { i32, i32, i32, i32, float }
%struct.dt_iop_buffer_dsc_t = type { i32, i32, i32, [6 x [6 x i8]], %struct.anon, [12 x i8], %struct.anon.0, [4 x float], i32, [12 x i8] }
%struct.anon = type { i16, i16 }
%struct.anon.0 = type { i32, [12 x i8], [4 x float] }
%struct.dt_iop_lut3d_data_t = type { %struct.dt_iop_lut3d_params_t, ptr, i16 }
%struct.dt_iop_module_t = type { i32, ptr, ptr, ptr, ptr, ptr, ptr, ptr, ptr, ptr, ptr, ptr, ptr, ptr, ptr, ptr, ptr, ptr, ptr, ptr, ptr, ptr, ptr, ptr, ptr, ptr, ptr, ptr, ptr, ptr, ptr, ptr, ptr, ptr, ptr, ptr, ptr, ptr, ptr, ptr, ptr, ptr, ptr, ptr, ptr, ptr, ptr, ptr, ptr, ptr, ptr, ptr, ptr, ptr, ptr, ptr, ptr, [20 x i8], i32, i32, i32, i32, i32, i32, i32, [8 x i8], [4 x float], [4 x float], [4 x float], [4 x float], [4 x float], [4 x float], ptr, %struct.dt_dev_histogram_stats_t, [4 x i32], i32, i32, ptr, i32, i32, ptr, ptr, i32, ptr, %struct.dt_pthread_mutex_t, ptr, ptr, ptr, ptr, %struct.anon.1, ptr, ptr, ptr, ptr, ptr, ptr, ptr, i32, ptr, ptr, ptr, ptr, ptr, ptr, ptr, i32, ptr, i32, [128 x i8], i32, ptr, ptr, i32, [12 x i8] }
%struct.anon.1 = type { %struct.anon.2, %struct.anon.3 }
%struct.anon.2 = type { ptr, ptr }
%struct.anon.3 = type { ptr, i32 }

; Function Attrs: nounwind uwtable
define void @init_pipe(ptr noundef %0, ptr noundef %1, ptr noundef %2) #0 {
  %4 = alloca ptr, align 8
  %5 = alloca ptr, align 8
  %6 = alloca ptr, align 8
  %7 = alloca ptr, align 8
  store ptr %0, ptr %4, align 8, !tbaa !6
  store ptr %1, ptr %5, align 8, !tbaa !11
  store ptr %2, ptr %6, align 8, !tbaa !13
  %8 = call noalias ptr @malloc(i64 noundef 12960) #14
  %9 = load ptr, ptr %6, align 8, !tbaa !13
  %10 = getelementptr inbounds nuw %struct.dt_dev_pixelpipe_iop_t, ptr %9, i32 0, i32 2
  store ptr %8, ptr %10, align 16, !tbaa !100
  call void @llvm.lifetime.start.p0(i64 8, ptr %7) #13
  %11 = load ptr, ptr %6, align 8, !tbaa !13
  %12 = getelementptr inbounds nuw %struct.dt_dev_pixelpipe_iop_t, ptr %11, i32 0, i32 2
  %13 = load ptr, ptr %12, align 16, !tbaa !100
  store ptr %13, ptr %7, align 8, !tbaa !110
  %14 = load ptr, ptr %7, align 8, !tbaa !110
  %15 = getelementptr inbounds nuw %struct.dt_iop_lut3d_data_t, ptr %14, i32 0, i32 0
  %16 = load ptr, ptr %4, align 8, !tbaa !6
  %17 = getelementptr inbounds nuw %struct.dt_iop_module_t, ptr %16, i32 0, i32 81
  %18 = load ptr, ptr %17, align 16, !tbaa !175
  call void @llvm.memcpy.p0.p0.i64(ptr align 8 %15, ptr align 1 %18, i64 12940, i1 false)
  %19 = load ptr, ptr %7, align 8, !tbaa !110
  %20 = getelementptr inbounds nuw %struct.dt_iop_lut3d_data_t, ptr %19, i32 0, i32 1
  store ptr null, ptr %20, align 8, !tbaa !115
  %21 = load ptr, ptr %7, align 8, !tbaa !110
  %22 = getelementptr inbounds nuw %struct.dt_iop_lut3d_data_t, ptr %21, i32 0, i32 2
  store i16 0, ptr %22, align 8, !tbaa !117
  %23 = load ptr, ptr %7, align 8, !tbaa !110
  %24 = getelementptr inbounds nuw %struct.dt_iop_lut3d_data_t, ptr %23, i32 0, i32 0
  %25 = getelementptr inbounds nuw %struct.dt_iop_lut3d_params_t, ptr %24, i32 0, i32 0
  %26 = getelementptr inbounds [512 x i8], ptr %25, i64 0, i64 0
  store i8 0, ptr %26, align 8, !tbaa !47
  call void @llvm.lifetime.end.p0(i64 8, ptr %7) #13
  ret void
}