; Function Attrs: mustprogress nofree nounwind willreturn uwtable
define void @init_pipe(ptr noundef readonly captures(none) %0, ptr noundef readnone captures(none) %1, ptr noundef writeonly captures(none) initializes((16, 24)) %2) local_unnamed_addr #18 {
  %4 = tail call noalias dereferenceable_or_null(12960) ptr @malloc(i64 noundef 12960) #26
  %5 = getelementptr inbounds nuw i8, ptr %2, i64 16
  store ptr %4, ptr %5, align 16, !tbaa !76
  %6 = getelementptr inbounds nuw i8, ptr %0, i64 688
  %7 = load ptr, ptr %6, align 16, !tbaa !136
  tail call void @llvm.memcpy.p0.p0.i64(ptr noundef nonnull align 8 dereferenceable(12940) %4, ptr noundef nonnull align 1 dereferenceable(12940) %7, i64 12940, i1 false)
  %8 = getelementptr inbounds nuw i8, ptr %4, i64 12944
  store ptr null, ptr %8, align 8, !tbaa !92
  %9 = getelementptr inbounds nuw i8, ptr %4, i64 12952
  store i16 0, ptr %9, align 8, !tbaa !94
  store i8 0, ptr %4, align 8, !tbaa !73
  ret void
}